; Function Attrs: mustprogress uwtable
define void @_ZN23FilterExpressionToolBar16updateStyleSheetEv(ptr noundef nonnull align 8 dereferenceable(52) %0) local_unnamed_addr #0 align 2 personality ptr @__gxx_personality_v0 {
  %2 = alloca %class.QString, align 16
  %3 = alloca %class.QString, align 16
  call void @llvm.lifetime.start.p0(i64 24, ptr nonnull %2)
  call void @_ZN7QString8fromUtf8E14QByteArrayView(ptr dead_on_unwind nonnull writable sret(%class.QString) align 8 %2, i64 118, ptr nonnull @.str.5)
  %4 = load <2 x ptr>, ptr %2, align 16
  store <2 x ptr> %4, ptr %3, align 16
  %5 = getelementptr inbounds i8, ptr %3, i64 16
  %6 = getelementptr inbounds i8, ptr %2, i64 16
  %7 = load i64, ptr %6, align 16
  store i64 %7, ptr %5, align 16
  call void @llvm.lifetime.end.p0(i64 24, ptr nonnull %2)
  invoke void @_ZN7QWidget13setStyleSheetERK7QString(ptr noundef nonnull align 8 dereferenceable(40) %0, ptr noundef nonnull align 8 dereferenceable(24) %3)
          to label %8 unwind label %13

8:                                                ; preds = %1
  %9 = load ptr, ptr %3, align 16
  %.not.i.i.i = icmp eq ptr %9, null
  br i1 %.not.i.i.i, label %_ZN7QStringD2Ev.exit, label %_ZN17QArrayDataPointerIDsE5derefEv.exit.i.i

_ZN17QArrayDataPointerIDsE5derefEv.exit.i.i:      ; preds = %8
  %10 = atomicrmw sub ptr %9, i32 1 seq_cst, align 4
  %.not.i.i = icmp eq i32 %10, 1
  br i1 %.not.i.i, label %11, label %_ZN7QStringD2Ev.exit

11:                                               ; preds = %_ZN17QArrayDataPointerIDsE5derefEv.exit.i.i
  %12 = load ptr, ptr %3, align 16
  call void @_ZN10QArrayData10deallocateEPS_xx(ptr noundef %12, i64 noundef 2, i64 noundef 8) #16
  br label %_ZN7QStringD2Ev.exit

_ZN7QStringD2Ev.exit:                             ; preds = %8, %_ZN17QArrayDataPointerIDsE5derefEv.exit.i.i, %11
  ret void

13:                                               ; preds = %1
  %14 = landingpad { ptr, i32 }
          cleanup
  %15 = load ptr, ptr %3, align 16
  %.not.i.i.i2 = icmp eq ptr %15, null
  br i1 %.not.i.i.i2, label %_ZN7QStringD2Ev.exit5, label %_ZN17QArrayDataPointerIDsE5derefEv.exit.i.i3

_ZN17QArrayDataPointerIDsE5derefEv.exit.i.i3:     ; preds = %13
  %16 = atomicrmw sub ptr %15, i32 1 seq_cst, align 4
  %.not.i.i4 = icmp eq i32 %16, 1
  br i1 %.not.i.i4, label %17, label %_ZN7QStringD2Ev.exit5

17:                                               ; preds = %_ZN17QArrayDataPointerIDsE5derefEv.exit.i.i3
  %18 = load ptr, ptr %3, align 16
  call void @_ZN10QArrayData10deallocateEPS_xx(ptr noundef %18, i64 noundef 2, i64 noundef 8) #16
  br label %_ZN7QStringD2Ev.exit5

_ZN7QStringD2Ev.exit5:                            ; preds = %13, %_ZN17QArrayDataPointerIDsE5derefEv.exit.i.i3, %17
  resume { ptr, i32 } %14
}